target datalayout = "e-m:e-p270:32:32-p271:32:32-p272:64:64-i64:64-i128:128-f80:128-n8:16:32:64-S128"
target triple = "x86_64-pc-linux-gnu"

%struct.expert_field = type { i32, i32 }

@hf_bpdu_pvst_tlvtype = internal global i32 0, align 4
@hf_bpdu_pvst_tlvlength = internal global i32 0, align 4
@hf_bpdu_pvst_tlv_origvlan = internal global i32 0, align 4
@hf_bpdu_pvst_tlvvalue = internal global i32 0, align 4
@ett_bpdu_pvst_tlv = internal global i32 0, align 4
@ei_pvst_tlv_length_invalid = internal global %struct.expert_field zeroinitializer, align 4
@ei_pvst_tlv_origvlan_missing = internal global %struct.expert_field zeroinitializer, align 4
@ei_pvst_tlv_truncated = internal global %struct.expert_field zeroinitializer, align 4
@ei_pvst_tlv_unknown = internal global %struct.expert_field zeroinitializer, align 4
@bpdu_pvst_tlv_vals = internal constant [2 x { i32, [4 x i8], ptr }] [{ i32, [4 x i8], ptr } { i32 0, [4 x i8] zeroinitializer, ptr @.str.52 }, { i32, [4 x i8], ptr } zeroinitializer], align 16
@.str.194 = private unnamed_addr constant [25 x i8] c"Unknown TLV type: 0x%04x\00", align 1
@.str.195 = private unnamed_addr constant [12 x i8] c" (PVID): %u\00", align 1

; Function Attrs: null_pointer_is_valid sspstrong uwtable
define internal void @dissect_bpdu_pvst_tlv(ptr noundef %0, ptr noundef %1, ptr noundef %2) #0 {
  %4 = alloca ptr, align 8
  %5 = alloca ptr, align 8
  %6 = alloca ptr, align 8
  %7 = alloca i8, align 1
  %8 = alloca i16, align 2
  %9 = alloca i16, align 2
  %10 = alloca i32, align 4
  %11 = alloca ptr, align 8
  %12 = alloca ptr, align 8
  %13 = alloca ptr, align 8
  store ptr %0, ptr %4, align 8
  store ptr %1, ptr %5, align 8
  store ptr %2, ptr %6, align 8
  call void @llvm.lifetime.start.p0(i64 1, ptr %7) #3
  store i8 0, ptr %7, align 1
  call void @llvm.lifetime.start.p0(i64 2, ptr %8) #3
  call void @llvm.lifetime.start.p0(i64 2, ptr %9) #3
  call void @llvm.lifetime.start.p0(i64 4, ptr %10) #3
  store i32 36, ptr %10, align 4
  call void @llvm.lifetime.start.p0(i64 8, ptr %11) #3
  store ptr null, ptr %11, align 8
  call void @llvm.lifetime.start.p0(i64 8, ptr %12) #3
  store ptr null, ptr %12, align 8
  call void @llvm.lifetime.start.p0(i64 8, ptr %13) #3
  store ptr null, ptr %13, align 8
  %14 = load ptr, ptr %6, align 8
  %15 = load i32, ptr %10, align 4
  %16 = call i32 @tvb_reported_length_remaining(ptr noundef %14, i32 noundef %15)
  %17 = icmp slt i32 %16, 4
  br i1 %17, label %18, label %22

18:                                               ; preds = %3
  %19 = load ptr, ptr %4, align 8
  %20 = load ptr, ptr %5, align 8
  %21 = call ptr @expert_add_info(ptr noundef %19, ptr noundef %20, ptr noundef @ei_pvst_tlv_truncated)
  br label %22

22:                                               ; preds = %18, %3
  br label %23

23:                                               ; preds = %107, %22
  %24 = load ptr, ptr %6, align 8
  %25 = load i32, ptr %10, align 4
  %26 = call i32 @tvb_reported_length_remaining(ptr noundef %24, i32 noundef %25)
  %27 = icmp sge i32 %26, 4
  br i1 %27, label %28, label %112

28:                                               ; preds = %23
  %29 = load ptr, ptr %6, align 8
  %30 = load i32, ptr %10, align 4
  %31 = call zeroext i16 @tvb_get_ntohs(ptr noundef %29, i32 noundef %30)
  store i16 %31, ptr %8, align 2
  %32 = load ptr, ptr %6, align 8
  %33 = load i32, ptr %10, align 4
  %34 = add i32 %33, 2
  %35 = call zeroext i16 @tvb_get_ntohs(ptr noundef %32, i32 noundef %34)
  store i16 %35, ptr %9, align 2
  %36 = load ptr, ptr %5, align 8
  %37 = load ptr, ptr %6, align 8
  %38 = load i32, ptr %10, align 4
  %39 = load i16, ptr %9, align 2
  %40 = zext i16 %39 to i32
  %41 = add i32 4, %40
  %42 = load i32, ptr @ett_bpdu_pvst_tlv, align 4
  %43 = load i16, ptr %8, align 2
  %44 = zext i16 %43 to i32
  %45 = call ptr @val_to_str(i32 noundef %44, ptr noundef @bpdu_pvst_tlv_vals, ptr noundef @.str.194)
  %46 = call ptr @proto_tree_add_subtree(ptr noundef %36, ptr noundef %37, i32 noundef %38, i32 noundef %41, i32 noundef %42, ptr noundef %11, ptr noundef %45)
  store ptr %46, ptr %13, align 8
  %47 = load ptr, ptr %13, align 8
  %48 = load i32, ptr @hf_bpdu_pvst_tlvtype, align 4
  %49 = load ptr, ptr %6, align 8
  %50 = load i32, ptr %10, align 4
  %51 = call ptr @proto_tree_add_item(ptr noundef %47, i32 noundef %48, ptr noundef %49, i32 noundef %50, i32 noundef 2, i32 noundef 0)
  %52 = load ptr, ptr %13, align 8
  %53 = load i32, ptr @hf_bpdu_pvst_tlvlength, align 4
  %54 = load ptr, ptr %6, align 8
  %55 = load i32, ptr %10, align 4
  %56 = add i32 %55, 2
  %57 = call ptr @proto_tree_add_item(ptr noundef %52, i32 noundef %53, ptr noundef %54, i32 noundef %56, i32 noundef 2, i32 noundef 0)
  store ptr %57, ptr %12, align 8
  %58 = load ptr, ptr %6, align 8
  %59 = load i32, ptr %10, align 4
  %60 = add i32 %59, 4
  %61 = call i32 @tvb_reported_length_remaining(ptr noundef %58, i32 noundef %60)
  %62 = load i16, ptr %9, align 2
  %63 = zext i16 %62 to i32
  %64 = icmp slt i32 %61, %63
  br i1 %64, label %65, label %69

65:                                               ; preds = %28
  %66 = load ptr, ptr %4, align 8
  %67 = load ptr, ptr %12, align 8
  %68 = call ptr @expert_add_info(ptr noundef %66, ptr noundef %67, ptr noundef @ei_pvst_tlv_truncated)
  br label %112

69:                                               ; preds = %28
  %70 = load i32, ptr %10, align 4
  %71 = add i32 %70, 4
  store i32 %71, ptr %10, align 4
  %72 = load i16, ptr %8, align 2
  %73 = zext i16 %72 to i32
  switch i32 %73, label %96 [
    i32 0, label %74
  ]

74:                                               ; preds = %69
  %75 = load i16, ptr %9, align 2
  %76 = zext i16 %75 to i32
  %77 = icmp eq i32 %76, 2
  br i1 %77, label %78, label %91

78:                                               ; preds = %74
  %79 = load ptr, ptr %11, align 8
  %80 = load ptr, ptr %6, align 8
  %81 = load i32, ptr %10, align 4
  %82 = call zeroext i16 @tvb_get_ntohs(ptr noundef %80, i32 noundef %81)
  %83 = zext i16 %82 to i32
  call void (ptr, ptr, ...) @proto_item_append_text(ptr noundef %79, ptr noundef @.str.195, i32 noundef %83)
  %84 = load ptr, ptr %13, align 8
  %85 = load i32, ptr @hf_bpdu_pvst_tlv_origvlan, align 4
  %86 = load ptr, ptr %6, align 8
  %87 = load i32, ptr %10, align 4
  %88 = load i16, ptr %9, align 2
  %89 = zext i16 %88 to i32
  %90 = call ptr @proto_tree_add_item(ptr noundef %84, i32 noundef %85, ptr noundef %86, i32 noundef %87, i32 noundef %89, i32 noundef 0)
  store i8 1, ptr %7, align 1
  br label %95

91:                                               ; preds = %74
  %92 = load ptr, ptr %4, align 8
  %93 = load ptr, ptr %12, align 8
  %94 = call ptr @expert_add_info(ptr noundef %92, ptr noundef %93, ptr noundef @ei_pvst_tlv_length_invalid)
  br label %95

95:                                               ; preds = %91, %78
  br label %107

96:                                               ; preds = %69
  %97 = load ptr, ptr %13, align 8
  %98 = load i32, ptr @hf_bpdu_pvst_tlvvalue, align 4
  %99 = load ptr, ptr %6, align 8
  %100 = load i32, ptr %10, align 4
  %101 = load i16, ptr %9, align 2
  %102 = zext i16 %101 to i32
  %103 = call ptr @proto_tree_add_item(ptr noundef %97, i32 noundef %98, ptr noundef %99, i32 noundef %100, i32 noundef %102, i32 noundef 0)
  %104 = load ptr, ptr %4, align 8
  %105 = load ptr, ptr %13, align 8
  %106 = call ptr @expert_add_info(ptr noundef %104, ptr noundef %105, ptr noundef @ei_pvst_tlv_unknown)
  br label %107

107:                                              ; preds = %96, %95
  %108 = load i16, ptr %9, align 2
  %109 = zext i16 %108 to i32
  %110 = load i32, ptr %10, align 4
  %111 = add i32 %110, %109
  store i32 %111, ptr %10, align 4
  br label %23, !llvm.loop !10

112:                                              ; preds = %65, %23
  %113 = load i8, ptr %7, align 1, !range !6, !noundef !7
  %114 = trunc i8 %113 to i1
  %115 = zext i1 %114 to i32
  %116 = icmp eq i32 %115, 0
  br i1 %116, label %117, label %121

117:                                              ; preds = %112
  %118 = load ptr, ptr %4, align 8
  %119 = load ptr, ptr %5, align 8
  %120 = call ptr @expert_add_info(ptr noundef %118, ptr noundef %119, ptr noundef @ei_pvst_tlv_origvlan_missing)
  br label %121

121:                                              ; preds = %117, %112
  call void @llvm.lifetime.end.p0(i64 8, ptr %13) #3
  call void @llvm.lifetime.end.p0(i64 8, ptr %12) #3
  call void @llvm.lifetime.end.p0(i64 8, ptr %11) #3
  call void @llvm.lifetime.end.p0(i64 4, ptr %10) #3
  call void @llvm.lifetime.end.p0(i64 2, ptr %9) #3
  call void @llvm.lifetime.end.p0(i64 2, ptr %8) #3
  call void @llvm.lifetime.end.p0(i64 1, ptr %7) #3
  ret void
}