; Function Attrs: null_pointer_is_valid sspstrong uwtable
define internal fastcc void @dissect_bpdu_pvst_tlv(ptr noundef %0, ptr noundef %1, ptr noundef %2) unnamed_addr #0 {
  %4 = alloca ptr, align 8
  call void @llvm.lifetime.start.p0(i64 8, ptr nonnull %4) #3
  store ptr null, ptr %4, align 8
  %5 = tail call i32 @tvb_reported_length_remaining(ptr noundef %2, i32 noundef 36)
  %6 = icmp slt i32 %5, 4
  br i1 %6, label %7, label %9

7:                                                ; preds = %3
  %8 = tail call ptr @expert_add_info(ptr noundef %0, ptr noundef %1, ptr noundef nonnull @ei_pvst_tlv_truncated)
  br label %9

9:                                                ; preds = %7, %3
  %10 = tail call i32 @tvb_reported_length_remaining(ptr noundef %2, i32 noundef 36)
  %11 = icmp sgt i32 %10, 3
  br i1 %11, label %.lr.ph, label %.loopexit.thread

.lr.ph:                                           ; preds = %9, %45
  %.052 = phi i32 [ %46, %45 ], [ 36, %9 ]
  %.04751 = phi i8 [ %.1, %45 ], [ 0, %9 ]
  %12 = call zeroext i16 @tvb_get_ntohs(ptr noundef %2, i32 noundef %.052)
  %13 = add i32 %.052, 2
  %14 = call zeroext i16 @tvb_get_ntohs(ptr noundef %2, i32 noundef %13)
  %15 = zext i16 %14 to i32
  %16 = add nuw nsw i32 %15, 4
  %17 = load i32, ptr @ett_bpdu_pvst_tlv, align 4
  %18 = zext i16 %12 to i32
  %19 = call ptr @val_to_str(i32 noundef %18, ptr noundef nonnull @bpdu_pvst_tlv_vals, ptr noundef nonnull @.str.194)
  %20 = call ptr @proto_tree_add_subtree(ptr noundef %1, ptr noundef %2, i32 noundef %.052, i32 noundef %16, i32 noundef %17, ptr noundef nonnull %4, ptr noundef %19)
  %21 = load i32, ptr @hf_bpdu_pvst_tlvtype, align 4
  %22 = call ptr @proto_tree_add_item(ptr noundef %20, i32 noundef %21, ptr noundef %2, i32 noundef %.052, i32 noundef 2, i32 noundef 0)
  %23 = load i32, ptr @hf_bpdu_pvst_tlvlength, align 4
  %24 = call ptr @proto_tree_add_item(ptr noundef %20, i32 noundef %23, ptr noundef %2, i32 noundef %13, i32 noundef 2, i32 noundef 0)
  %25 = add i32 %.052, 4
  %26 = call i32 @tvb_reported_length_remaining(ptr noundef %2, i32 noundef %25)
  %27 = icmp slt i32 %26, %15
  br i1 %27, label %28, label %30

28:                                               ; preds = %.lr.ph
  %29 = call ptr @expert_add_info(ptr noundef %0, ptr noundef %24, ptr noundef nonnull @ei_pvst_tlv_truncated)
  br label %.loopexit

30:                                               ; preds = %.lr.ph
  %cond = icmp eq i16 %12, 0
  br i1 %cond, label %31, label %41

31:                                               ; preds = %30
  %32 = icmp eq i16 %14, 2
  br i1 %32, label %33, label %39

33:                                               ; preds = %31
  %34 = load ptr, ptr %4, align 8
  %35 = call zeroext i16 @tvb_get_ntohs(ptr noundef %2, i32 noundef %25)
  %36 = zext i16 %35 to i32
  call void (ptr, ptr, ...) @proto_item_append_text(ptr noundef %34, ptr noundef nonnull @.str.195, i32 noundef %36)
  %37 = load i32, ptr @hf_bpdu_pvst_tlv_origvlan, align 4
  %38 = call ptr @proto_tree_add_item(ptr noundef %20, i32 noundef %37, ptr noundef %2, i32 noundef %25, i32 noundef 2, i32 noundef 0)
  br label %45

39:                                               ; preds = %31
  %40 = call ptr @expert_add_info(ptr noundef %0, ptr noundef %24, ptr noundef nonnull @ei_pvst_tlv_length_invalid)
  br label %45

41:                                               ; preds = %30
  %42 = load i32, ptr @hf_bpdu_pvst_tlvvalue, align 4
  %43 = call ptr @proto_tree_add_item(ptr noundef %20, i32 noundef %42, ptr noundef %2, i32 noundef %25, i32 noundef %15, i32 noundef 0)
  %44 = call ptr @expert_add_info(ptr noundef %0, ptr noundef %20, ptr noundef nonnull @ei_pvst_tlv_unknown)
  br label %45

45:                                               ; preds = %33, %39, %41
  %.1 = phi i8 [ 1, %33 ], [ %.04751, %39 ], [ %.04751, %41 ]
  %46 = add i32 %25, %15
  %47 = call i32 @tvb_reported_length_remaining(ptr noundef %2, i32 noundef %46)
  %48 = icmp sgt i32 %47, 3
  br i1 %48, label %.lr.ph, label %.loopexit, !llvm.loop !10

.loopexit:                                        ; preds = %45, %28
  %.04750 = phi i8 [ %.04751, %28 ], [ %.1, %45 ]
  %49 = and i8 %.04750, 1
  %50 = icmp eq i8 %49, 0
  br i1 %50, label %.loopexit.thread, label %52

.loopexit.thread:                                 ; preds = %9, %.loopexit
  %51 = call ptr @expert_add_info(ptr noundef %0, ptr noundef %1, ptr noundef nonnull @ei_pvst_tlv_origvlan_missing)
  br label %52

52:                                               ; preds = %.loopexit.thread, %.loopexit
  call void @llvm.lifetime.end.p0(i64 8, ptr nonnull %4) #3
  ret void
}